target datalayout = "e-m:e-p270:32:32-p271:32:32-p272:64:64-i64:64-i128:128-f80:128-n8:16:32:64-S128"
target triple = "x86_64-pc-linux-gnu"

%struct.Sfm_Ntk_t_ = type { ptr, i32, i32, i32, i32, i32, ptr, ptr, ptr, %struct.Vec_Wec_t_, ptr, ptr, %struct.Vec_Wec_t_, %struct.Vec_Int_t_, %struct.Vec_Int_t_, %struct.Vec_Int_t_, %struct.Vec_Int_t_, %struct.Vec_Int_t_, ptr, ptr, %struct.Vec_Int_t_, %struct.Vec_Int_t_, i32, i32, i32, ptr, ptr, ptr, ptr, ptr, i32, i32, i32, i32, i32, i32, i32, i32, ptr, ptr, ptr, ptr, ptr, ptr, ptr, ptr, [12 x [64 x i64]], [12 x ptr], [64 x i64], [64 x i64], i32, i32, i32, i32, i32, i32, i32, i32, i32, i64, i64, i64, i64, i64, i64 }
%struct.Vec_Wec_t_ = type { i32, i32, ptr }
%struct.Vec_Int_t_ = type { i32, i32, ptr }

; Function Attrs: inlinehint nounwind uwtable
define internal ptr @Vec_WecEntry(ptr noundef %0, i32 noundef %1) #2 {
  %3 = alloca ptr, align 8
  %4 = alloca i32, align 4
  store ptr %0, ptr %3, align 8, !tbaa !29
  store i32 %1, ptr %4, align 4, !tbaa !8
  %5 = load ptr, ptr %3, align 8, !tbaa !29
  %6 = getelementptr inbounds nuw %struct.Vec_Wec_t_, ptr %5, i32 0, i32 2
  %7 = load ptr, ptr %6, align 8, !tbaa !38
  %8 = load i32, ptr %4, align 4, !tbaa !8
  %9 = sext i32 %8 to i64
  %10 = getelementptr inbounds %struct.Vec_Int_t_, ptr %7, i64 %9
  ret ptr %10
}

; Function Attrs: inlinehint nounwind uwtable
define internal i32 @Vec_IntEntry(ptr noundef %0, i32 noundef %1) #2 {
  %3 = alloca ptr, align 8
  %4 = alloca i32, align 4
  store ptr %0, ptr %3, align 8, !tbaa !28
  store i32 %1, ptr %4, align 4, !tbaa !8
  %5 = load ptr, ptr %3, align 8, !tbaa !28
  %6 = getelementptr inbounds nuw %struct.Vec_Int_t_, ptr %5, i32 0, i32 2
  %7 = load ptr, ptr %6, align 8, !tbaa !37
  %8 = load i32, ptr %4, align 4, !tbaa !8
  %9 = sext i32 %8 to i64
  %10 = getelementptr inbounds i32, ptr %7, i64 %9
  %11 = load i32, ptr %10, align 4, !tbaa !8
  ret i32 %11
}

; Function Attrs: inlinehint nounwind uwtable
define internal i32 @Vec_IntSize(ptr noundef %0) #2 {
  %2 = alloca ptr, align 8
  store ptr %0, ptr %2, align 8, !tbaa !28
  %3 = load ptr, ptr %2, align 8, !tbaa !28
  %4 = getelementptr inbounds nuw %struct.Vec_Int_t_, ptr %3, i32 0, i32 1
  %5 = load i32, ptr %4, align 4, !tbaa !24
  ret i32 %5
}

; Function Attrs: inlinehint nounwind uwtable
define internal ptr @Sfm_ObjFiArray(ptr noundef %0, i32 noundef %1) #2 {
  %3 = alloca ptr, align 8
  %4 = alloca i32, align 4
  store ptr %0, ptr %3, align 8, !tbaa !3
  store i32 %1, ptr %4, align 4, !tbaa !8
  %5 = load ptr, ptr %3, align 8, !tbaa !3
  %6 = getelementptr inbounds nuw %struct.Sfm_Ntk_t_, ptr %5, i32 0, i32 9
  %7 = load i32, ptr %4, align 4, !tbaa !8
  %8 = call ptr @Vec_WecEntry(ptr noundef %6, i32 noundef %7)
  ret ptr %8
}

; Function Attrs: inlinehint nounwind uwtable
define internal ptr @Sfm_ObjFoArray(ptr noundef %0, i32 noundef %1) #2 {
  %3 = alloca ptr, align 8
  %4 = alloca i32, align 4
  store ptr %0, ptr %3, align 8, !tbaa !3
  store i32 %1, ptr %4, align 4, !tbaa !8
  %5 = load ptr, ptr %3, align 8, !tbaa !3
  %6 = getelementptr inbounds nuw %struct.Sfm_Ntk_t_, ptr %5, i32 0, i32 12
  %7 = load i32, ptr %4, align 4, !tbaa !8
  %8 = call ptr @Vec_WecEntry(ptr noundef %6, i32 noundef %7)
  ret ptr %8
}

; Function Attrs: inlinehint nounwind uwtable
define internal i32 @Sfm_ObjFanin(ptr noundef %0, i32 noundef %1, i32 noundef %2) #2 {
  %4 = alloca ptr, align 8
  %5 = alloca i32, align 4
  %6 = alloca i32, align 4
  store ptr %0, ptr %4, align 8, !tbaa !3
  store i32 %1, ptr %5, align 4, !tbaa !8
  store i32 %2, ptr %6, align 4, !tbaa !8
  %7 = load ptr, ptr %4, align 8, !tbaa !3
  %8 = load i32, ptr %5, align 4, !tbaa !8
  %9 = call ptr @Sfm_ObjFiArray(ptr noundef %7, i32 noundef %8)
  %10 = load i32, ptr %6, align 4, !tbaa !8
  %11 = call i32 @Vec_IntEntry(ptr noundef %9, i32 noundef %10)
  ret i32 %11
}

; Function Attrs: inlinehint nounwind uwtable
define internal i32 @Sfm_ObjFaninNum(ptr noundef %0, i32 noundef %1) #2 {
  %3 = alloca ptr, align 8
  %4 = alloca i32, align 4
  store ptr %0, ptr %3, align 8, !tbaa !3
  store i32 %1, ptr %4, align 4, !tbaa !8
  %5 = load ptr, ptr %3, align 8, !tbaa !3
  %6 = load i32, ptr %4, align 4, !tbaa !8
  %7 = call ptr @Sfm_ObjFiArray(ptr noundef %5, i32 noundef %6)
  %8 = call i32 @Vec_IntSize(ptr noundef %7)
  ret i32 %8
}

; Function Attrs: inlinehint nounwind uwtable
define internal i32 @Sfm_ObjRefIncrement(ptr noundef %0, i32 noundef %1) #2 {
  %3 = alloca ptr, align 8
  %4 = alloca i32, align 4
  store ptr %0, ptr %3, align 8, !tbaa !3
  store i32 %1, ptr %4, align 4, !tbaa !8
  %5 = load ptr, ptr %3, align 8, !tbaa !3
  %6 = load i32, ptr %4, align 4, !tbaa !8
  %7 = call ptr @Sfm_ObjFoArray(ptr noundef %5, i32 noundef %6)
  %8 = getelementptr inbounds nuw %struct.Vec_Int_t_, ptr %7, i32 0, i32 1
  %9 = load i32, ptr %8, align 4, !tbaa !24
  %10 = add nsw i32 %9, 1
  store i32 %10, ptr %8, align 4, !tbaa !24
  ret i32 %10
}

; Function Attrs: inlinehint nounwind uwtable
define internal i32 @Sfm_ObjIsPi(ptr noundef %0, i32 noundef %1) #2 {
  %3 = alloca ptr, align 8
  %4 = alloca i32, align 4
  store ptr %0, ptr %3, align 8, !tbaa !3
  store i32 %1, ptr %4, align 4, !tbaa !8
  %5 = load i32, ptr %4, align 4, !tbaa !8
  %6 = load ptr, ptr %3, align 8, !tbaa !3
  %7 = getelementptr inbounds nuw %struct.Sfm_Ntk_t_, ptr %6, i32 0, i32 1
  %8 = load i32, ptr %7, align 8, !tbaa !12
  %9 = icmp slt i32 %5, %8
  %10 = zext i1 %9 to i32
  ret i32 %10
}

; Function Attrs: nounwind uwtable
define i32 @Sfm_ObjRef_rec(ptr noundef %0, i32 noundef %1) #0 {
  %3 = alloca i32, align 4
  %4 = alloca ptr, align 8
  %5 = alloca i32, align 4
  %6 = alloca i32, align 4
  %7 = alloca i32, align 4
  %8 = alloca i32, align 4
  %9 = alloca i32, align 4
  %10 = alloca i32, align 4
  store ptr %0, ptr %4, align 8, !tbaa !3
  store i32 %1, ptr %5, align 4, !tbaa !8
  call void @llvm.lifetime.start.p0(i64 4, ptr %6) #7
  call void @llvm.lifetime.start.p0(i64 4, ptr %7) #7
  call void @llvm.lifetime.start.p0(i64 4, ptr %8) #7
  call void @llvm.lifetime.start.p0(i64 4, ptr %9) #7
  %11 = load ptr, ptr %4, align 8, !tbaa !3
  %12 = load i32, ptr %5, align 4, !tbaa !8
  %13 = call i32 @Sfm_ObjIsPi(ptr noundef %11, i32 noundef %12)
  %14 = icmp ne i32 %13, 0
  br i1 %14, label %15, label %16

15:                                               ; preds = %2
  store i32 0, ptr %3, align 4
  store i32 1, ptr %10, align 4
  br label %48

16:                                               ; preds = %2
  %17 = load ptr, ptr %4, align 8, !tbaa !3
  %18 = load i32, ptr %5, align 4, !tbaa !8
  %19 = call i32 @Sfm_ObjRefIncrement(ptr noundef %17, i32 noundef %18)
  store i32 %19, ptr %8, align 4, !tbaa !8
  %20 = load i32, ptr %8, align 4, !tbaa !8
  %21 = icmp sgt i32 %20, 1
  br i1 %21, label %22, label %23

22:                                               ; preds = %16
  store i32 0, ptr %3, align 4
  store i32 1, ptr %10, align 4
  br label %48

23:                                               ; preds = %16
  store i32 1, ptr %9, align 4, !tbaa !8
  store i32 0, ptr %6, align 4, !tbaa !8
  br label %24

24:                                               ; preds = %43, %23
  %25 = load i32, ptr %6, align 4, !tbaa !8
  %26 = load ptr, ptr %4, align 8, !tbaa !3
  %27 = load i32, ptr %5, align 4, !tbaa !8
  %28 = call i32 @Sfm_ObjFaninNum(ptr noundef %26, i32 noundef %27)
  %29 = icmp slt i32 %25, %28
  br i1 %29, label %30, label %35

30:                                               ; preds = %24
  %31 = load ptr, ptr %4, align 8, !tbaa !3
  %32 = load i32, ptr %5, align 4, !tbaa !8
  %33 = load i32, ptr %6, align 4, !tbaa !8
  %34 = call i32 @Sfm_ObjFanin(ptr noundef %31, i32 noundef %32, i32 noundef %33)
  store i32 %34, ptr %7, align 4, !tbaa !8
  br label %35

35:                                               ; preds = %30, %24
  %36 = phi i1 [ false, %24 ], [ true, %30 ]
  br i1 %36, label %37, label %46

37:                                               ; preds = %35
  %38 = load ptr, ptr %4, align 8, !tbaa !3
  %39 = load i32, ptr %7, align 4, !tbaa !8
  %40 = call i32 @Sfm_ObjRef_rec(ptr noundef %38, i32 noundef %39)
  %41 = load i32, ptr %9, align 4, !tbaa !8
  %42 = add nsw i32 %41, %40
  store i32 %42, ptr %9, align 4, !tbaa !8
  br label %43

43:                                               ; preds = %37
  %44 = load i32, ptr %6, align 4, !tbaa !8
  %45 = add nsw i32 %44, 1
  store i32 %45, ptr %6, align 4, !tbaa !8
  br label %24, !llvm.loop !10

46:                                               ; preds = %35
  %47 = load i32, ptr %9, align 4, !tbaa !8
  store i32 %47, ptr %3, align 4
  store i32 1, ptr %10, align 4
  br label %48

48:                                               ; preds = %46, %22, %15
  call void @llvm.lifetime.end.p0(i64 4, ptr %9) #7
  call void @llvm.lifetime.end.p0(i64 4, ptr %8) #7
  call void @llvm.lifetime.end.p0(i64 4, ptr %7) #7
  call void @llvm.lifetime.end.p0(i64 4, ptr %6) #7
  %49 = load i32, ptr %3, align 4
  ret i32 %49
}